Certificate:
    Data:
        Version: 3 (0x2)
        Serial Number: 4096 (0x1000)
        Signature Algorithm: sha256WithRSAEncryption
        Issuer: C=DZ, ST=Wilaya de Ouargla, L=Hassi-Messaoud, O=Entreprise Nationale de Geologie, OU=IT Department, CN=ENAGEO Root CA/emailAddress=admin@enageo.dz
        Validity
            Not Before: Jun 22 22:03:07 2025 GMT
            Not After : Jun 20 22:03:07 2035 GMT
        Subject: C=DZ, ST=Wilaya de Ouargla, O=Entreprise Nationale de Geologie, OU=IT Department, CN=backend.enageo.com/emailAddress=admin@enageo.dz
        Subject Public Key Info:
            Public Key Algorithm: rsaEncryption
                Public-Key: (2048 bit)
                Modulus:
                    00:88:17:7d:b6:aa:6b:f9:84:13:3c:3d:98:1e:9b:
                    3b:0d:bb:4b:31:1f:d6:f5:c9:06:60:5b:fe:a4:20:
                    c4:56:96:85:c8:43:69:85:b7:77:bc:cf:95:e3:44:
                    cd:34:92:f4:1f:92:a3:7e:a1:83:45:ff:17:c4:70:
                    2b:b4:11:06:b1:3c:94:01:0e:b1:61:e3:bd:46:e0:
                    ff:d2:4e:02:5c:34:3e:d7:a7:06:bd:cd:a4:8a:9e:
                    64:4e:f2:40:04:3b:13:f1:15:9e:9b:29:66:df:6d:
                    6d:af:5d:98:27:f4:e0:5a:a9:9f:ea:77:74:be:a7:
                    f1:c5:7c:ca:6d:92:b9:e7:e3:52:2e:ed:2c:43:e6:
                    43:98:a7:92:3e:9e:2c:5a:85:d6:e4:0b:e3:be:ab:
                    b6:f6:45:01:f6:44:85:06:a5:8f:6f:19:a5:95:b8:
                    65:d4:35:9c:93:e3:b1:44:17:87:9f:bc:8a:91:0f:
                    f1:aa:e8:5a:a8:c0:55:09:eb:b4:22:04:d9:a8:af:
                    5b:4a:69:0a:9f:f6:9f:7f:23:ff:7b:19:cb:36:62:
                    79:bf:b6:78:19:63:5e:01:59:40:b4:8a:46:cc:21:
                    77:c6:89:19:5b:39:2c:9e:1b:37:61:95:c3:33:22:
                    a6:d6:9a:44:02:a7:0d:fc:31:67:17:b0:23:6e:a8:
                    f4:13
                Exponent: 65537 (0x10001)
        X509v3 extensions:
            X509v3 Basic Constraints: 
                CA:FALSE
            X509v3 Key Usage: 
                Digital Signature, Key Encipherment
            X509v3 Extended Key Usage: 
                TLS Web Server Authentication, TLS Web Client Authentication
            X509v3 Subject Alternative Name: 
                DNS:localhost, DNS:backend.enageo.com, DNS:127.0.0.1, IP Address:127.0.0.1
            X509v3 Subject Key Identifier: 
                BA:78:26:02:9F:9E:D4:EA:05:A2:5A:46:DC:E8:B5:AF:18:87:5F:BC
            X509v3 Authority Key Identifier: 
                35:DB:C7:FB:1B:21:4C:4E:99:6A:AE:87:B0:EC:17:35:1F:01:26:3A
    Signature Algorithm: sha256WithRSAEncryption
    Signature Value:
        1a:ec:e9:b4:9b:db:18:d2:21:e1:be:60:90:e1:ce:93:e6:6b:
        13:36:49:1c:0b:ca:85:72:1d:06:25:c0:58:03:a6:9c:b3:b6:
        29:93:10:86:2d:9f:43:76:25:dc:79:23:be:fa:bf:d0:38:8a:
        8c:fc:70:34:c6:bb:37:25:ee:d4:9b:b2:22:c4:38:4e:83:02:
        76:d5:be:67:cf:26:c4:44:a4:d9:96:60:21:d3:e1:79:87:d9:
        90:02:ab:cd:58:e9:9b:9f:77:57:b1:15:d2:b2:dc:3e:b1:c5:
        16:00:97:f5:f9:ab:55:50:42:0a:ab:31:c7:eb:48:42:c3:ed:
        32:6f:70:89:fe:ab:69:89:62:f2:9c:f6:97:5d:e7:35:ac:61:
        c3:43:3b:7f:07:a7:a2:2d:cb:ed:43:2e:ca:c1:79:08:d9:1c:
        29:7f:10:99:aa:d8:a0:46:ca:cb:e4:dd:33:9a:05:52:cf:f9:
        96:04:36:fd:3c:bd:f6:7b:33:ae:c7:6a:a3:6c:11:87:f0:0b:
        4d:49:4b:e9:9b:0c:8e:98:c1:11:d0:95:7e:78:f0:5f:03:3b:
        20:6c:88:d5:af:23:0c:e0:0b:19:9f:30:1f:80:cb:99:b4:27:
        90:72:b3:83:47:c6:8c:a0:e2:78:f0:80:b3:7c:35:a2:3c:b6:
        c0:09:25:2a:1f:c7:6e:6e:ba:a7:e0:7a:0b:8f:70:e3:44:8f:
        70:0a:81:e2:b2:e3:82:86:26:fc:06:10:47:21:ca:e7:04:5a:
        a2:51:60:4b:ed:de:82:97:06:39:31:94:ca:d5:d8:a7:80:60:
        21:12:17:8a:18:ec:f7:d0:20:60:de:4d:e0:3d:19:24:96:c8:
        7a:d7:58:3f:e4:69:02:4a:44:44:50:1d:b3:df:d2:98:ff:8f:
        3d:7c:91:46:dc:e9:93:ed:3d:1f:a7:b2:d8:4b:b2:6c:1c:e1:
        b7:d7:dd:17:89:e8:b3:d4:80:1a:d1:d0:dd:55:d8:41:8f:8a:
        ee:06:77:0e:6c:55:3b:a3:4d:0e:65:fb:c0:de:fb:ea:09:41:
        0a:6c:e2:00:62:8b:f7:7d:38:b7:d6:07:9f:49:fa:7e:01:05:
        02:59:07:f6:01:71:8e:a5:25:5c:0e:49:26:f3:c4:64:24:61:
        30:a8:15:b1:06:7c:99:40:00:8f:48:e1:4f:aa:f0:f7:96:b2:
        87:fd:aa:73:67:2a:fa:fa:41:59:0e:bb:00:83:61:22:af:cd:
        b8:3d:fa:8e:84:c0:a4:ad:fe:83:a7:26:2b:0d:95:70:4b:7b:
        76:f8:0a:f1:e9:62:bd:e1:ae:17:f0:05:74:d6:c9:74:07:1c:
        0f:aa:aa:f6:e9:0b:81:f5
-----BEGIN CERTIFICATE-----
MIIFmzCCA4OgAwIBAgICEAAwDQYJKoZIhvcNAQELBQAwgb4xCzAJBgNVBAYTAkRa
MRowGAYDVQQIDBFXaWxheWEgZGUgT3VhcmdsYTEXMBUGA1UEBwwOSGFzc2ktTWVz
c2FvdWQxKTAnBgNVBAoMIEVudHJlcHJpc2UgTmF0aW9uYWxlIGRlIEdlb2xvZ2ll
MRYwFAYDVQQLDA1JVCBEZXBhcnRtZW50MRcwFQYDVQQDDA5FTkFHRU8gUm9vdCBD
QTEeMBwGCSqGSIb3DQEJARYPYWRtaW5AZW5hZ2VvLmR6MB4XDTI1MDYyMjIyMDMw
N1oXDTM1MDYyMDIyMDMwN1owgakxCzAJBgNVBAYTAkRaMRowGAYDVQQIDBFXaWxh
eWEgZGUgT3VhcmdsYTEpMCcGA1UECgwgRW50cmVwcmlzZSBOYXRpb25hbGUgZGUg
R2VvbG9naWUxFjAUBgNVBAsMDUlUIERlcGFydG1lbnQxGzAZBgNVBAMMEmJhY2tl
bmQuZW5hZ2VvLmNvbTEeMBwGCSqGSIb3DQEJARYPYWRtaW5AZW5hZ2VvLmR6MIIB
IjANBgkqhkiG9w0BAQEFAAOCAQ8AMIIBCgKCAQEAiBd9tqpr+YQTPD2YHps7DbtL
MR/W9ckGYFv+pCDEVpaFyENphbd3vM+V40TNNJL0H5KjfqGDRf8XxHArtBEGsTyU
AQ6xYeO9RuD/0k4CXDQ+16cGvc2kip5kTvJABDsT8RWemylm321tr12YJ/TgWqmf
6nd0vqfxxXzKbZK55+NSLu0sQ+ZDmKeSPp4sWoXW5Avjvqu29kUB9kSFBqWPbxml
lbhl1DWck+OxRBeHn7yKkQ/xquhaqMBVCeu0IgTZqK9bSmkKn/affyP/exnLNmJ5
v7Z4GWNeAVlAtIpGzCF3xokZWzksnhs3YZXDMyKm1ppEAqcN/DFnF7Ajbqj0EwID
AQABo4G1MIGyMAkGA1UdEwQCMAAwCwYDVR0PBAQDAgWgMB0GA1UdJQQWMBQGCCsG
AQUFBwMBBggrBgEFBQcDAjA5BgNVHREEMjAwgglsb2NhbGhvc3SCEmJhY2tlbmQu
ZW5hZ2VvLmNvbYIJMTI3LjAuMC4xhwR/AAABMB0GA1UdDgQWBBS6eCYCn57U6gWi
Wkbc6LWvGIdfvDAfBgNVHSMEGDAWgBQ128f7GyFMTplqroew7Bc1HwEmOjANBgkq
hkiG9w0BAQsFAAOCAgEAGuzptJvbGNIh4b5gkOHOk+ZrEzZJHAvKhXIdBiXAWAOm
nLO2KZMQhi2fQ3Yl3Hkjvvq/0DiKjPxwNMa7NyXu1JuyIsQ4ToMCdtW+Z88mxESk
2ZZgIdPheYfZkAKrzVjpm593V7EV0rLcPrHFFgCX9fmrVVBCCqsxx+tIQsPtMm9w
if6raYli8pz2l13nNaxhw0M7fwenoi3L7UMuysF5CNkcKX8QmarYoEbKy+TdM5oF
Us/5lgQ2/Ty99nszrsdqo2wRh/ALTUlL6ZsMjpjBEdCVfnjwXwM7IGyI1a8jDOAL
GZ8wH4DLmbQnkHKzg0fGjKDiePCAs3w1ojy2wAklKh/Hbm66p+B6C49w40SPcAqB
4rLjgoYm/AYQRyHK5wRaolFgS+3egpcGOTGUytXYp4BgIRIXihjs99AgYN5N4D0Z
JJbIetdYP+RpAkpERFAds9/SmP+PPXyRRtzpk+09H6ey2EuybBzht9fdF4nos9SA
GtHQ3VXYQY+K7gZ3DmxVO6NNDmX7wN776glBCmziAGKL9304t9YHn0n6fgEFAlkH
9gFxjqUlXA5JJvPEZCRhMKgVsQZ8mUAAj0jhT6rw95ayh/2qc2cq+vpBWQ67AINh
Iq/NuD36joTApK3+g6cmKw2VcEt7dvgK8eliveGuF/AFdNbJdAccD6qq9ukLgfU=
-----END CERTIFICATE-----
